target datalayout = "e-m:e-p270:32:32-p271:32:32-p272:64:64-i64:64-i128:128-f80:128-n8:16:32:64-S128"
target triple = "x86_64-pc-linux-gnu"

%struct.object_id = type { [32 x i8], i32 }
%struct.startup_info = type { i32, ptr, ptr }

@the_repository = external global ptr, align 8
@filter = internal global i32 -1, align 4
@def = internal global ptr null, align 8
@startup_info = external global ptr, align 8
@output_sq = internal global i32 0, align 4
@.str.117 = private unnamed_addr constant [4 x i8] c"'\\'\00", align 1
@stdout = external global ptr, align 8

; Function Attrs: inlinehint nounwind uwtable
define available_externally i32 @putchar(i32 noundef %0) #6 {
  %2 = alloca i32, align 4
  store i32 %0, ptr %2, align 4, !tbaa !4
  %3 = load i32, ptr %2, align 4, !tbaa !4
  %4 = load ptr, ptr @stdout, align 8, !tbaa !89
  %5 = call i32 @putc(i32 noundef %3, ptr noundef %4)
  ret i32 %5
}

; Function Attrs: nounwind uwtable
define internal void @show(ptr noundef %0) #0 {
  %2 = alloca ptr, align 8
  %3 = alloca i32, align 4
  %4 = alloca i32, align 4
  store ptr %0, ptr %2, align 8, !tbaa !11
  %5 = load i32, ptr @output_sq, align 4, !tbaa !4
  %6 = icmp ne i32 %5, 0
  br i1 %6, label %7, label %30

7:                                                ; preds = %1
  call void @llvm.lifetime.start.p0(i64 4, ptr %3) #11
  store i32 39, ptr %3, align 4, !tbaa !4
  call void @llvm.lifetime.start.p0(i64 4, ptr %4) #11
  %8 = load i32, ptr %3, align 4, !tbaa !4
  %9 = call i32 @putchar(i32 noundef %8)
  br label %10

10:                                               ; preds = %23, %7
  %11 = load ptr, ptr %2, align 8, !tbaa !11
  %12 = getelementptr inbounds nuw i8, ptr %11, i32 1
  store ptr %12, ptr %2, align 8, !tbaa !11
  %13 = load i8, ptr %11, align 1, !tbaa !39
  %14 = sext i8 %13 to i32
  store i32 %14, ptr %4, align 4, !tbaa !4
  %15 = icmp ne i32 %14, 0
  br i1 %15, label %16, label %26

16:                                               ; preds = %10
  %17 = load i32, ptr %4, align 4, !tbaa !4
  %18 = load i32, ptr %3, align 4, !tbaa !4
  %19 = icmp eq i32 %17, %18
  br i1 %19, label %20, label %23

20:                                               ; preds = %16
  %21 = load ptr, ptr @stdout, align 8, !tbaa !89
  %22 = call i32 @fputs(ptr noundef @.str.117, ptr noundef %21)
  br label %23

23:                                               ; preds = %20, %16
  %24 = load i32, ptr %4, align 4, !tbaa !4
  %25 = call i32 @putchar(i32 noundef %24)
  br label %10, !llvm.loop !101

26:                                               ; preds = %10
  %27 = load i32, ptr %3, align 4, !tbaa !4
  %28 = call i32 @putchar(i32 noundef %27)
  %29 = call i32 @putchar(i32 noundef 32)
  call void @llvm.lifetime.end.p0(i64 4, ptr %4) #11
  call void @llvm.lifetime.end.p0(i64 4, ptr %3) #11
  br label %33

30:                                               ; preds = %1
  %31 = load ptr, ptr %2, align 8, !tbaa !11
  %32 = call i32 @puts(ptr noundef %31)
  br label %33

33:                                               ; preds = %30, %26
  ret void
}

; Function Attrs: nounwind uwtable
define internal i32 @show_default() #0 {
  %1 = alloca i32, align 4
  %2 = alloca ptr, align 8
  %3 = alloca %struct.object_id, align 4
  %4 = alloca i32, align 4
  call void @llvm.lifetime.start.p0(i64 8, ptr %2) #11
  %5 = load ptr, ptr @def, align 8, !tbaa !11
  store ptr %5, ptr %2, align 8, !tbaa !11
  %6 = load ptr, ptr %2, align 8, !tbaa !11
  %7 = icmp ne ptr %6, null
  br i1 %7, label %8, label %19

8:                                                ; preds = %0
  call void @llvm.lifetime.start.p0(i64 36, ptr %3) #11
  store ptr null, ptr @def, align 8, !tbaa !11
  %9 = load ptr, ptr @the_repository, align 8, !tbaa !13
  %10 = load ptr, ptr %2, align 8, !tbaa !11
  %11 = call i32 @repo_get_oid(ptr noundef %9, ptr noundef %10, ptr noundef %3)
  %12 = icmp ne i32 %11, 0
  br i1 %12, label %15, label %13

13:                                               ; preds = %8
  %14 = load ptr, ptr %2, align 8, !tbaa !11
  call void @show_rev(i32 noundef 0, ptr noundef %3, ptr noundef %14)
  store i32 1, ptr %1, align 4
  store i32 1, ptr %4, align 4
  br label %16

15:                                               ; preds = %8
  store i32 0, ptr %4, align 4
  br label %16

16:                                               ; preds = %15, %13
  call void @llvm.lifetime.end.p0(i64 36, ptr %3) #11
  %17 = load i32, ptr %4, align 4
  switch i32 %17, label %20 [
    i32 0, label %18
  ]

18:                                               ; preds = %16
  br label %19

19:                                               ; preds = %18, %0
  store i32 0, ptr %1, align 4
  store i32 1, ptr %4, align 4
  br label %20

20:                                               ; preds = %19, %16
  call void @llvm.lifetime.end.p0(i64 8, ptr %2) #11
  %21 = load i32, ptr %1, align 4
  ret i32 %21
}

; Function Attrs: nounwind uwtable
define internal i32 @show_file(ptr noundef %0, i32 noundef %1) #0 {
  %3 = alloca i32, align 4
  %4 = alloca ptr, align 8
  %5 = alloca i32, align 4
  %6 = alloca ptr, align 8
  %7 = alloca ptr, align 8
  store ptr %0, ptr %4, align 8, !tbaa !11
  store i32 %1, ptr %5, align 4, !tbaa !4
  %8 = call i32 @show_default()
  %9 = load i32, ptr @filter, align 4, !tbaa !4
  %10 = and i32 %9, 10
  %11 = icmp eq i32 %10, 10
  br i1 %11, label %12, label %27

12:                                               ; preds = %2
  %13 = load i32, ptr %5, align 4, !tbaa !4
  %14 = icmp ne i32 %13, 0
  br i1 %14, label %15, label %24

15:                                               ; preds = %12
  call void @llvm.lifetime.start.p0(i64 8, ptr %6) #11
  %16 = load ptr, ptr @startup_info, align 8, !tbaa !40
  %17 = getelementptr inbounds nuw %struct.startup_info, ptr %16, i32 0, i32 1
  %18 = load ptr, ptr %17, align 8, !tbaa !42
  store ptr %18, ptr %6, align 8, !tbaa !11
  call void @llvm.lifetime.start.p0(i64 8, ptr %7) #11
  %19 = load ptr, ptr %6, align 8, !tbaa !11
  %20 = load ptr, ptr %4, align 8, !tbaa !11
  %21 = call ptr @prefix_filename(ptr noundef %19, ptr noundef %20)
  store ptr %21, ptr %7, align 8, !tbaa !11
  %22 = load ptr, ptr %7, align 8, !tbaa !11
  call void @show(ptr noundef %22)
  %23 = load ptr, ptr %7, align 8, !tbaa !11
  call void @free(ptr noundef %23) #11
  call void @llvm.lifetime.end.p0(i64 8, ptr %7) #11
  call void @llvm.lifetime.end.p0(i64 8, ptr %6) #11
  br label %26

24:                                               ; preds = %12
  %25 = load ptr, ptr %4, align 8, !tbaa !11
  call void @show(ptr noundef %25)
  br label %26

26:                                               ; preds = %24, %15
  store i32 1, ptr %3, align 4
  br label %28

27:                                               ; preds = %2
  store i32 0, ptr %3, align 4
  br label %28

28:                                               ; preds = %27, %26
  %29 = load i32, ptr %3, align 4
  ret i32 %29
}