; Function Attrs: nounwind uwtable
define internal fastcc range(i32 0, 2) i32 @show_file(ptr noundef %0, i32 noundef range(i32 0, 2) %1) unnamed_addr #0 {
  %3 = alloca %struct.object_id, align 4
  %4 = load ptr, ptr @def, align 8, !tbaa !4
  %.not.i = icmp eq ptr %4, null
  br i1 %.not.i, label %show_default.exit, label %5

5:                                                ; preds = %2
  call void @llvm.lifetime.start.p0(i64 36, ptr nonnull %3) #19
  store ptr null, ptr @def, align 8, !tbaa !4
  %6 = load ptr, ptr @the_repository, align 8, !tbaa !39
  %7 = call i32 @repo_get_oid(ptr noundef %6, ptr noundef nonnull %4, ptr noundef nonnull %3) #19
  %.not6.not.i = icmp eq i32 %7, 0
  br i1 %.not6.not.i, label %8, label %.sink.split.i

8:                                                ; preds = %5
  call fastcc void @show_rev(i32 noundef 0, ptr noundef nonnull %3, ptr noundef nonnull %4)
  br label %.sink.split.i

.sink.split.i:                                    ; preds = %8, %5
  call void @llvm.lifetime.end.p0(i64 36, ptr nonnull %3) #19
  br label %show_default.exit

show_default.exit:                                ; preds = %2, %.sink.split.i
  %9 = load i32, ptr @filter, align 4, !tbaa !9
  %10 = and i32 %9, 10
  %11 = icmp eq i32 %10, 10
  br i1 %11, label %12, label %show.exit12

12:                                               ; preds = %show_default.exit
  %.not = icmp eq i32 %1, 0
  br i1 %.not, label %32, label %13

13:                                               ; preds = %12
  %14 = load ptr, ptr @startup_info, align 8, !tbaa !63
  %15 = getelementptr inbounds nuw i8, ptr %14, i64 8
  %16 = load ptr, ptr %15, align 8, !tbaa !65
  %17 = call ptr @prefix_filename(ptr noundef %16, ptr noundef %0) #19
  %.b.i = load i1, ptr @output_sq, align 4
  br i1 %.b.i, label %.preheader13, label %30

.preheader13:                                     ; preds = %13, %.preheader13.backedge
  %.sink.sink.i = phi i32 [ %.sink.sink.i.be, %.preheader13.backedge ], [ 39, %13 ]
  %.0.i = phi ptr [ %20, %.preheader13.backedge ], [ %17, %13 ]
  %18 = load ptr, ptr @stdout, align 8, !tbaa !25
  %19 = call i32 @putc(i32 noundef %.sink.sink.i, ptr noundef %18)
  %20 = getelementptr inbounds nuw i8, ptr %.0.i, i64 1
  %21 = load i8, ptr %.0.i, align 1, !tbaa !24
  switch i8 %21, label %.split.i [
    i8 0, label %25
    i8 39, label %.split7.i
  ]

.split.i:                                         ; preds = %.preheader13
  %22 = sext i8 %21 to i32
  br label %.preheader13.backedge

.split7.i:                                        ; preds = %.preheader13
  %23 = load ptr, ptr @stdout, align 8, !tbaa !25
  %24 = call i64 @fwrite(ptr nonnull @.str.117, i64 3, i64 1, ptr %23)
  br label %.preheader13.backedge

.preheader13.backedge:                            ; preds = %.split7.i, %.split.i
  %.sink.sink.i.be = phi i32 [ %22, %.split.i ], [ 39, %.split7.i ]
  br label %.preheader13, !llvm.loop !61

25:                                               ; preds = %.preheader13
  %26 = load ptr, ptr @stdout, align 8, !tbaa !25
  %27 = call i32 @putc(i32 noundef 39, ptr noundef %26)
  %28 = load ptr, ptr @stdout, align 8, !tbaa !25
  %29 = call i32 @putc(i32 noundef 32, ptr noundef %28)
  br label %show.exit

30:                                               ; preds = %13
  %31 = call i32 @puts(ptr noundef nonnull readonly dereferenceable(1) %17)
  br label %show.exit

show.exit:                                        ; preds = %25, %30
  call void @free(ptr noundef %17) #19
  br label %show.exit12

32:                                               ; preds = %12
  %.b.i6 = load i1, ptr @output_sq, align 4
  br i1 %.b.i6, label %.preheader, label %45

.preheader:                                       ; preds = %32, %.preheader.backedge
  %.sink.sink.i7 = phi i32 [ %.sink.sink.i7.be, %.preheader.backedge ], [ 39, %32 ]
  %.0.i8 = phi ptr [ %35, %.preheader.backedge ], [ %0, %32 ]
  %33 = load ptr, ptr @stdout, align 8, !tbaa !25
  %34 = call i32 @putc(i32 noundef %.sink.sink.i7, ptr noundef %33)
  %35 = getelementptr inbounds nuw i8, ptr %.0.i8, i64 1
  %36 = load i8, ptr %.0.i8, align 1, !tbaa !24
  switch i8 %36, label %.split.i11 [
    i8 0, label %40
    i8 39, label %.split7.i9
  ]

.split.i11:                                       ; preds = %.preheader
  %37 = sext i8 %36 to i32
  br label %.preheader.backedge

.split7.i9:                                       ; preds = %.preheader
  %38 = load ptr, ptr @stdout, align 8, !tbaa !25
  %39 = call i64 @fwrite(ptr nonnull @.str.117, i64 3, i64 1, ptr %38)
  br label %.preheader.backedge

.preheader.backedge:                              ; preds = %.split7.i9, %.split.i11
  %.sink.sink.i7.be = phi i32 [ %37, %.split.i11 ], [ 39, %.split7.i9 ]
  br label %.preheader, !llvm.loop !61

40:                                               ; preds = %.preheader
  %41 = load ptr, ptr @stdout, align 8, !tbaa !25
  %42 = call i32 @putc(i32 noundef 39, ptr noundef %41)
  %43 = load ptr, ptr @stdout, align 8, !tbaa !25
  %44 = call i32 @putc(i32 noundef 32, ptr noundef %43)
  br label %show.exit12

45:                                               ; preds = %32
  %46 = call i32 @puts(ptr noundef nonnull readonly dereferenceable(1) %0)
  br label %show.exit12

show.exit12:                                      ; preds = %45, %40, %show_default.exit, %show.exit
  %.0 = phi i32 [ 1, %show.exit ], [ 0, %show_default.exit ], [ 1, %40 ], [ 1, %45 ]
  ret i32 %.0
}